Certificate:
    Data:
        Version: 3 (0x2)
        Serial Number: 0 (0x0)
    Signature Algorithm: sha1WithRSAEncryption
        Issuer: C=SE, ST=VG, L=Goteborg, O=Chalmers, OU=CSE, CN=Paragon CA
        Validity
            Not Before: Jan 28 17:42:26 2013 GMT
            Not After : Jan 28 17:42:26 2014 GMT
        Subject: C=SE, ST=VG, O=Chalmers, OU=CSE, CN=Bart van Delft
        Subject Public Key Info:
            Public Key Algorithm: rsaEncryption
                Public-Key: (1024 bit)
                Modulus:
                    00:84:5a:47:97:71:6a:3d:de:08:e7:cd:32:b6:c0:
                    23:eb:df:48:39:33:45:ee:f6:61:16:46:3f:32:11:
                    3d:77:46:9e:1e:47:94:48:1c:e0:88:5d:73:f2:f9:
                    5e:68:c5:7b:01:76:c4:09:9f:c5:6d:4d:68:2a:b5:
                    86:4d:2e:16:c0:51:89:d2:c6:2e:ef:a0:92:5b:ee:
                    eb:ce:b2:34:ab:f0:41:79:0b:61:ff:35:69:c7:46:
                    b0:66:02:11:9a:61:b1:a2:e3:3a:1a:99:1f:4b:3e:
                    cc:1a:10:22:b2:dc:3a:75:bd:a2:ee:34:5c:20:b5:
                    ef:0a:c9:e4:40:71:11:56:19
                Exponent: 65537 (0x10001)
        X509v3 extensions:
            X509v3 Basic Constraints: 
                CA:FALSE
            Netscape Comment: 
                OpenSSL Generated Certificate
            X509v3 Subject Key Identifier: 
                27:3C:F1:0B:4C:4A:59:85:98:46:50:08:B2:9F:70:FD:E8:C0:AF:B8
            X509v3 Authority Key Identifier: 
                keyid:00:7C:55:ED:2C:5F:F9:F0:41:50:1D:ED:33:4C:12:33:5B:56:58:87

    Signature Algorithm: sha1WithRSAEncryption
         3b:da:e2:5a:32:82:45:95:36:af:6f:40:6b:5b:1c:f4:03:22:
         1e:8a:01:e6:eb:95:ac:49:64:8a:72:02:aa:09:70:19:fe:8e:
         88:f3:13:1f:b6:4a:20:a2:01:9d:8e:72:35:92:30:c9:e8:6e:
         8e:ea:93:fb:f8:e9:a7:a8:0e:ba:d3:4a:8d:d0:e2:28:e2:ec:
         55:ef:d7:6a:6d:b0:f2:bd:e8:2b:80:9e:f5:65:40:98:ef:79:
         2f:21:34:9a:ed:ea:89:f6:61:4b:e7:30:dc:00:22:f3:c3:1c:
         14:12:b3:ab:62:0f:9f:92:6e:2b:a6:3c:96:75:a6:3b:78:c8:
         18:70:2d:80:73:f2:89:d7:7b:3b:b0:c8:80:95:d8:b8:4b:09:
         4d:aa:92:38:a6:26:a3:30:39:38:35:11:04:77:e9:ea:4b:5b:
         5d:0a:6b:c6:44:ed:cf:fa:09:ac:a0:69:5b:aa:0b:e7:68:8c:
         1d:c7:6d:a8:ff:48:64:1e:52:81:04:03:b2:4a:3c:33:c7:4a:
         51:ec:94:b2:f6:ec:50:76:69:62:bf:a9:9a:ac:46:82:7b:fd:
         e5:8b:b4:eb:a4:2c:00:e5:64:e8:85:85:b1:be:b9:44:45:a1:
         39:55:e0:48:4b:a7:23:e8:d2:5e:52:01:a7:3b:77:63:eb:28:
         93:e8:ac:33:ad:fe:89:78:49:ba:a7:d9:c6:10:cb:ec:12:18:
         f1:8e:c6:4f:3f:b2:ee:15:db:3c:e1:f7:ca:1e:84:1d:49:ea:
         61:c1:34:60:41:ae:ba:f8:7f:4b:7a:0d:23:be:64:ad:56:36:
         8c:e8:7a:b4:a1:e7:e7:5b:7e:47:29:6a:74:ad:b1:e1:34:a9:
         d3:b3:5b:de:1d:5a:56:04:0d:c7:e2:90:84:6e:b5:7f:0e:21:
         2f:59:86:71:fb:7a:a8:40:b5:3c:21:3b:40:9c:8c:a0:a2:87:
         ba:12:5d:86:d3:b4:bf:08:b9:98:48:7e:c0:0c:fc:31:3b:3e:
         c1:c4:36:b2:80:8e:f8:9d:52:03:32:23:74:93:62:80:10:d1:
         34:97:cd:20:14:33:a8:6c:91:3f:93:cb:aa:8f:0d:c9:b2:14:
         cb:f2:2c:22:b1:8b:9d:ac:1d:27:78:23:1b:3f:81:9c:89:d2:
         0f:ad:ac:10:1f:d7:95:6e:72:aa:52:cd:f8:a3:3a:b3:85:9a:
         04:2d:05:33:f2:53:d2:df:00:91:c4:07:5d:0e:56:46:56:cf:
         31:0f:ac:10:43:80:ef:d8:a9:06:97:79:ce:69:7e:29:01:2e:
         cf:0c:e3:05:56:9e:7b:1b:85:d2:6d:8f:6f:fb:b2:77:71:1b:
         db:5c:d4:d9:01:80:65:81
-----BEGIN CERTIFICATE-----
MIIEKTCCAhGgAwIBAgIBADANBgkqhkiG9w0BAQUFADBjMQswCQYDVQQGEwJTRTEL
MAkGA1UECBMCVkcxETAPBgNVBAcTCEdvdGVib3JnMREwDwYDVQQKEwhDaGFsbWVy
czEMMAoGA1UECxMDQ1NFMRMwEQYDVQQDEwpQYXJhZ29uIENBMB4XDTEzMDEyODE3
NDIyNloXDTE0MDEyODE3NDIyNlowVDELMAkGA1UEBhMCU0UxCzAJBgNVBAgTAlZH
MREwDwYDVQQKEwhDaGFsbWVyczEMMAoGA1UECxMDQ1NFMRcwFQYDVQQDEw5CYXJ0
IHZhbiBEZWxmdDCBnzANBgkqhkiG9w0BAQEFAAOBjQAwgYkCgYEAhFpHl3FqPd4I
580ytsAj699IOTNF7vZhFkY/MhE9d0aeHkeUSBzgiF1z8vleaMV7AXbECZ/FbU1o
KrWGTS4WwFGJ0sYu76CSW+7rzrI0q/BBeQth/zVpx0awZgIRmmGxouM6GpkfSz7M
GhAistw6db2i7jRcILXvCsnkQHERVhkCAwEAAaN7MHkwCQYDVR0TBAIwADAsBglg
hkgBhvhCAQ0EHxYdT3BlblNTTCBHZW5lcmF0ZWQgQ2VydGlmaWNhdGUwHQYDVR0O
BBYEFCc88QtMSlmFmEZQCLKfcP3owK+4MB8GA1UdIwQYMBaAFAB8Ve0sX/nwQVAd
7TNMEjNbVliHMA0GCSqGSIb3DQEBBQUAA4ICAQA72uJaMoJFlTavb0BrWxz0AyIe
igHm65WsSWSKcgKqCXAZ/o6I8xMftkogogGdjnI1kjDJ6G6O6pP7+OmnqA6600qN
0OIo4uxV79dqbbDyvegrgJ71ZUCY73kvITSa7eqJ9mFL5zDcACLzwxwUErOrYg+f
km4rpjyWdaY7eMgYcC2Ac/KJ13s7sMiAldi4SwlNqpI4piajMDk4NREEd+nqS1td
CmvGRO3P+gmsoGlbqgvnaIwdx22o/0hkHlKBBAOySjwzx0pR7JSy9uxQdmliv6ma
rEaCe/3li7TrpCwA5WTohYWxvrlERaE5VeBIS6cj6NJeUgGnO3dj6yiT6Kwzrf6J
eEm6p9nGEMvsEhjxjsZPP7LuFds84ffKHoQdSephwTRgQa66+H9Leg0jvmStVjaM
6Hq0oefnW35HKWp0rbHhNKnTs1veHVpWBA3H4pCEbrV/DiEvWYZx+3qoQLU8ITtA
nIygooe6El2G07S/CLmYSH7ADPwxOz7BxDaygI74nVIDMiN0k2KAENE0l80gFDOo
bJE/k8uqjw3JshTL8iwisYudrB0neCMbP4GcidIPrawQH9eVbnKqUs34ozqzhZoE
LQUz8lPS3wCRxAddDlZGVs8xD6wQQ4Dv2KkGl3nOaX4pAS7PDOMFVp57G4XSbY9v
+7J3cRvbXNTZAYBlgQ==
-----END CERTIFICATE-----
