Certificate:
    Data:
        Version: 3 (0x2)
        Serial Number: 1 (0x1)
    Signature Algorithm: sha1WithRSAEncryption
        Issuer: C=SE, ST=VG, L=Goteborg, O=Chalmers, OU=CSE, CN=Paragon CA
        Validity
            Not Before: Jan 28 17:44:48 2013 GMT
            Not After : Jan 28 17:44:48 2014 GMT
        Subject: C=SE, ST=VG, O=Chalmers, OU=CSE, CN=Niklas Broberg
        Subject Public Key Info:
            Public Key Algorithm: rsaEncryption
                Public-Key: (1024 bit)
                Modulus:
                    00:8b:6c:28:c1:1b:09:72:f3:d5:b1:7d:ad:c9:36:
                    31:d2:e6:9d:1a:56:d5:f0:d8:b7:01:20:f7:c1:e3:
                    93:09:fd:7c:59:e5:eb:89:59:fb:c1:17:29:30:15:
                    8d:cc:cb:b0:5a:9e:c8:be:b8:42:4b:1b:09:93:48:
                    86:91:5d:4a:67:8a:27:96:fe:b7:54:91:d5:f2:44:
                    14:87:2a:a6:d7:47:97:ef:de:3e:39:0b:e8:6e:dc:
                    1b:d7:d0:4e:9c:96:a0:7f:3e:68:46:79:e9:4d:68:
                    bf:02:59:1d:54:ad:5c:c8:80:82:09:0d:05:34:5b:
                    7b:e9:72:bb:60:03:72:2d:63
                Exponent: 65537 (0x10001)
        X509v3 extensions:
            X509v3 Basic Constraints: 
                CA:FALSE
            Netscape Comment: 
                OpenSSL Generated Certificate
            X509v3 Subject Key Identifier: 
                8D:86:04:9E:16:26:64:9A:B4:C4:6D:E5:23:04:2F:6D:45:88:60:D0
            X509v3 Authority Key Identifier: 
                keyid:00:7C:55:ED:2C:5F:F9:F0:41:50:1D:ED:33:4C:12:33:5B:56:58:87

    Signature Algorithm: sha1WithRSAEncryption
         b0:92:ab:7a:15:cc:14:92:c4:9e:e3:9e:8e:ad:fb:a0:79:3d:
         d5:08:8d:5f:0c:a0:8f:6f:9b:c3:88:57:e5:e4:5d:29:a4:11:
         e6:b1:e9:70:fe:20:2c:d3:f7:04:8d:4f:0d:22:77:24:79:dc:
         d4:3c:92:25:56:6b:49:6b:ce:72:74:09:84:2d:c8:8e:86:a5:
         1d:92:fe:7a:d6:bd:b6:34:51:93:03:e0:4e:87:af:59:09:68:
         69:aa:c1:56:ed:db:12:66:28:bd:4d:95:85:4d:28:31:b3:73:
         12:0f:8f:d6:9e:2b:a0:23:fe:1d:b9:9b:6d:de:7e:da:b7:08:
         60:93:d1:35:48:68:d6:d9:3e:26:d3:c5:c7:13:4b:15:bc:c4:
         b5:fd:c5:ce:16:58:38:58:f0:df:4e:ba:5e:67:13:87:b7:6b:
         8d:e6:40:58:13:29:6e:51:9e:da:f2:b2:cc:f7:72:6c:ea:40:
         20:75:52:7d:46:30:27:1e:b2:df:8d:9a:e4:66:7d:79:e6:0b:
         7a:15:32:40:cf:c3:83:0d:87:85:2c:ce:57:df:be:b2:55:2e:
         99:f8:5e:58:b2:9b:f6:48:f2:d3:ef:11:5e:9b:c5:25:68:e0:
         fd:95:db:e7:74:5d:47:06:8a:ff:5c:12:40:06:a6:0f:b9:d6:
         73:12:14:0d:fc:e0:2b:f4:6b:81:95:50:59:05:bd:59:4d:a6:
         66:f6:cf:cc:80:44:a7:3a:e9:9f:ff:09:bb:e6:43:4e:3b:f4:
         d9:b3:6e:83:7b:78:f6:90:34:48:c1:c4:ca:9f:94:2f:e0:fe:
         62:05:a6:f5:40:61:37:0e:f0:0f:46:04:9d:65:bf:1f:78:4c:
         a2:3e:c8:ea:f8:8f:e4:75:df:cf:db:11:57:13:18:dd:25:2e:
         03:9b:c1:5d:e3:58:da:dc:36:bb:7d:0d:71:cd:58:a6:ea:c9:
         1f:3e:57:99:ff:c9:c2:a2:e0:30:0d:32:d6:ef:8a:9e:2d:58:
         45:bc:ba:14:ed:bd:2e:84:de:15:df:ef:ff:a6:a0:e1:4c:09:
         d8:25:78:e3:ac:18:b3:ca:51:8b:01:38:96:25:7f:5a:e6:3c:
         24:b7:ff:6d:f6:65:f4:14:ee:d0:db:2e:7f:fa:3f:37:a0:e2:
         0b:55:dc:58:e6:8f:45:c9:68:f9:98:ab:c4:bf:ad:7a:8e:ef:
         17:1f:cb:61:aa:88:f0:d5:81:a9:58:b8:67:37:33:bf:de:3b:
         18:38:af:14:37:8b:ee:4d:31:ee:6a:83:43:91:72:7c:9f:72:
         dc:92:19:3b:04:ee:b5:37:71:ea:ed:26:e0:fc:2e:2a:38:88:
         6a:d0:cc:6b:50:62:20:b6
-----BEGIN CERTIFICATE-----
MIIEKTCCAhGgAwIBAgIBATANBgkqhkiG9w0BAQUFADBjMQswCQYDVQQGEwJTRTEL
MAkGA1UECBMCVkcxETAPBgNVBAcTCEdvdGVib3JnMREwDwYDVQQKEwhDaGFsbWVy
czEMMAoGA1UECxMDQ1NFMRMwEQYDVQQDEwpQYXJhZ29uIENBMB4XDTEzMDEyODE3
NDQ0OFoXDTE0MDEyODE3NDQ0OFowVDELMAkGA1UEBhMCU0UxCzAJBgNVBAgTAlZH
MREwDwYDVQQKEwhDaGFsbWVyczEMMAoGA1UECxMDQ1NFMRcwFQYDVQQDEw5OaWts
YXMgQnJvYmVyZzCBnzANBgkqhkiG9w0BAQEFAAOBjQAwgYkCgYEAi2wowRsJcvPV
sX2tyTYx0uadGlbV8Ni3ASD3weOTCf18WeXriVn7wRcpMBWNzMuwWp7IvrhCSxsJ
k0iGkV1KZ4onlv63VJHV8kQUhyqm10eX794+OQvobtwb19BOnJagfz5oRnnpTWi/
AlkdVK1cyICCCQ0FNFt76XK7YANyLWMCAwEAAaN7MHkwCQYDVR0TBAIwADAsBglg
hkgBhvhCAQ0EHxYdT3BlblNTTCBHZW5lcmF0ZWQgQ2VydGlmaWNhdGUwHQYDVR0O
BBYEFI2GBJ4WJmSatMRt5SMEL21FiGDQMB8GA1UdIwQYMBaAFAB8Ve0sX/nwQVAd
7TNMEjNbVliHMA0GCSqGSIb3DQEBBQUAA4ICAQCwkqt6FcwUksSe456OrfugeT3V
CI1fDKCPb5vDiFfl5F0ppBHmselw/iAs0/cEjU8NInckedzUPJIlVmtJa85ydAmE
LciOhqUdkv561r22NFGTA+BOh69ZCWhpqsFW7dsSZii9TZWFTSgxs3MSD4/Wniug
I/4duZtt3n7atwhgk9E1SGjW2T4m08XHE0sVvMS1/cXOFlg4WPDfTrpeZxOHt2uN
5kBYEyluUZ7a8rLM93Js6kAgdVJ9RjAnHrLfjZrkZn155gt6FTJAz8ODDYeFLM5X
376yVS6Z+F5Yspv2SPLT7xFem8UlaOD9ldvndF1HBor/XBJABqYPudZzEhQN/OAr
9GuBlVBZBb1ZTaZm9s/MgESnOumf/wm75kNOO/TZs26De3j2kDRIwcTKn5Qv4P5i
Bab1QGE3DvAPRgSdZb8feEyiPsjq+I/kdd/P2xFXExjdJS4Dm8Fd41ja3Da7fQ1x
zVim6skfPleZ/8nCouAwDTLW74qeLVhFvLoU7b0uhN4V3+//pqDhTAnYJXjjrBiz
ylGLATiWJX9a5jwkt/9t9mX0FO7Q2y5/+j83oOILVdxY5o9FyWj5mKvEv616ju8X
H8thqojw1YGpWLhnNzO/3jsYOK8UN4vuTTHuaoNDkXJ8n3Lckhk7BO61N3Hq7Sbg
/C4qOIhq0MxrUGIgtg==
-----END CERTIFICATE-----
